(lp0
VXML
p1
aVTypeScript
p2
aVJava
p3
aVObjective-C++
p4
aVScala
p5
aVEmacs Lisp
p6
aVApacheConf
p7
aVJavaScript
p8
aVMakefile
p9
aVPerl
p10
aVElm
p11
aVM4
p12
aVJupyter Notebook
p13
aVMatlab
p14
aVHaxe
p15
aVGroff
p16
aVNu
p17
aVEagle
p18
aVShell
p19
aVNginx
p20
aVPython
p21
aVArduino
p22
aVPascal
p23
aVCommon Lisp
p24
aVCoffeeScript
p25
aVNix
p26
aVHTML
p27
aVElixir
p28
aVLex
p29
aVRuby
p30
aVLilyPond
p31
aVPLpgSQL
p32
aVGroovy
p33
aVLogos
p34
aVC
p35
aVVue
p36
aVD
p37
aVLiquid
p38
aVXSLT
p39
aVF#
p40
aVM
p41
aVC++
p42
aVTeX
p43
aVObjective-C
p44
aVR
p45
aVVim script
p46
aVBatchfile
p47
aVClojure
p48
aVErlang
p49
aVCSS
p50
aVProlog
p51
aVCMake
p52
aVColdFusion
p53
aVPureScript
p54
aVSmarty
p55
aVGherkin
p56
aVYacc
p57
aVC#
p58
aVSelf
p59
aVHaskell
p60
aVPuppet
p61
aVProtocol Buffer
p62
aVGraphviz (DOT)
p63
aVGo
p64
aVASP
p65
aVVisual Basic
p66
aVPHP
p67
aVScheme
p68
aVPowerShell
p69
a.