(lp0
VMercury
p1
aVGLSL
p2
aVTypeScript
p3
aVDart
p4
aVObjective-C++
p5
aVDTrace
p6
aVSelf
p7
aVLean
p8
aVNewLisp
p9
aVRenderScript
p10
aVFortran
p11
aVJupyter Notebook
p12
aVRebol
p13
aVRobotFramework
p14
aVFrege
p15
aVGroff
p16
aVAspectJ
p17
aVPureBasic
p18
aVBrightscript
p19
aVShell
p20
aVPOV-Ray SDL
p21
aVAppleScript
p22
aVElm
p23
aVNix
p24
aVSuperCollider
p25
aVNginx
p26
aVMTML
p27
aVOpa
p28
aVElixir
p29
aVSAS
p30
aVAgda
p31
aVThrift
p32
aVLogos
p33
aVSRecode Template
p34
aVD
p35
aVooc
p36
aVInno Setup
p37
aVJ
p38
aVCrystal
p39
aVObjective-C
p40
aVBatchfile
p41
aVBison
p42
aVOz
p43
aVMirah
p44
aVObjective-J
p45
aVRagel
p46
aVRoff
p47
aVFreeMarker
p48
aVGettext Catalog
p49
aVSwift
p50
aVNemerle
p51
aVCeylon
p52
aVSmarty
p53
aVPure Data
p54
aVKiCad Layout
p55
aVArc
p56
aVCOBOL
p57
aVIGOR Pro
p58
aVAPL
p59
aVHack
p60
aVGo
p61
aVDylan
p62
aVVisual Basic
p63
aVPHP
p64
aVCirru
p65
aV1C Enterprise
p66
aVCoq
p67
aVJava
p68
aVMAXScript
p69
aVScala
p70
aVOpenSCAD
p71
aVApacheConf
p72
aVMakefile
p73
aVBitBake
p74
aVPerl
p75
aVLua
p76
aVVue
p77
aVVerilog
p78
aVCap'n Proto
p79
aVFactor
p80
aVHaxe
p81
aVForth
p82
aVRed
p83
aVHLSL
p84
aVHy
p85
aVXProc
p86
aVVolt
p87
aVAngelScript
p88
aVLSL
p89
aVIsabelle
p90
aVPascal
p91
aVeC
p92
aVTerra
p93
aVCoffeeScript
p94
aVHTML
p95
aVAwk
p96
aVGraphviz (DOT)
p97
aVLex
p98
aVPuppet
p99
aVIdris
p100
aVRuby
p101
aVLilyPond
p102
aVPLpgSQL
p103
aVCool
p104
aVModula-2
p105
aVC
p106
aVAutoHotkey
p107
aVP4
p108
aVGolo
p109
aVM
p110
aVMetal
p111
aVClarion
p112
aVGCC Machine Description
p113
aVInform 7
p114
aVBlitzBasic
p115
aVJSONiq
p116
aVBoo
p117
aVAutoIt
p118
aVWeb Ontology Language
p119
aVClojure
p120
aVHCL
p121
aVProlog
p122
aVCSS
p123
aVSourcePawn
p124
aVCMake
p125
aVAMPL
p126
aVANTLR
p127
aVLabVIEW
p128
aVYacc
p129
aVTcl
p130
aVHarbour
p131
aVXtend
p132
aVOCaml
p133
aVPigLatin
p134
aVxBase
p135
aVblock
p136
aVLasso
p137
aVMako
p138
aVEiffel
p139
aVVHDL
p140
aVArduino
p141
aVSMT
p142
aVRascal
p143
aVdocumentation_url
p144
aVIDL
p145
aVAda
p146
aVmessage
p147
aVJasmin
p148
aVNu
p149
aVLimbo
p150
aVMonkey
p151
aVRAML
p152
aVASP
p153
aVAssembly
p154
aVNetLinx
p155
aVC#
p156
aVTuring
p157
aVVala
p158
aVProcessing
p159
aVSQLPL
p160
aVFLUX
p161
aVNSIS
p162
aVChucK
p163
aVPerl 6
p164
aVRust
p165
aVLiveScript
p166
aVWebAssembly
p167
aVSaltStack
p168
aVGherkin
p169
aVQML
p170
aVXML
p171
aVPike
p172
aVMathematica
p173
aVLOLCODE
p174
aVLiquid
p175
aVXSLT
p176
aVM4
p177
aVXC
p178
aVDIGITAL Command Language
p179
aVMask
p180
aVEmberScript
p181
aVTeX
p182
aVStan
p183
aVTLA
p184
aVR
p185
aVCuda
p186
aVKRL
p187
aVVim script
p188
aVXS
p189
aVScilab
p190
aVSmali
p191
aVPostScript
p192
aVTea
p193
aVHandlebars
p194
aVProtocol Buffer
p195
aVColdFusion
p196
aVGDB
p197
aVF#
p198
aVAPI Blueprint
p199
aVPony
p200
aVActionScript
p201
aVDiff
p202
aVRagel in Ruby Host
p203
aVFantom
p204
aVZephir
p205
aVSmalltalk
p206
aVDM
p207
aVIoke
p208
aVStata
p209
aVGnuplot
p210
aVApex
p211
aVEmacs Lisp
p212
aVJavaScript
p213
aVQMake
p214
aVOpenEdge ABL
p215
aVBrainfuck
p216
aVABAP
p217
aVX10
p218
aVMatlab
p219
aVSlash
p220
aVErlang
p221
aVModule Management System
p222
aVEagle
p223
aVScheme
p224
aVPLSQL
p225
aVNim
p226
aVPython
p227
aVMax
p228
aVCommon Lisp
p229
aVGAP
p230
aVXQuery
p231
aVOmgrofl
p232
aVKotlin
p233
aVSystemVerilog
p234
aVChapel
p235
aVGroovy
p236
aVLLVM
p237
aVE
p238
aVParrot
p239
aVRouge
p240
aVVCL
p241
aVC++
p242
aVCLIPS
p243
aVCartoCSS
p244
aVClean
p245
aVAlloy
p246
aVShaderLab
p247
aVGosu
p248
aVSquirrel
p249
aVMoonScript
p250
aVPAWN
p251
aVUnrealScript
p252
aVStandard ML
p253
aVAugeas
p254
aVPureScript
p255
aVJulia
p256
aVBro
p257
aVHaskell
p258
aVIo
p259
aVGame Maker Language
p260
aVRacket
p261
aVAGS Script
p262
aVMeson
p263
aVDogescript
p264
aVPowerShell
p265
a.